; ModuleID = 'bench/hdf5/original/H5VLtest.c.ll'
source_filename = "bench/hdf5/original/H5VLtest.c.ll"
target datalayout = "e-m:e-p270:32:32-p271:32:32-p272:64:64-i64:64-i128:128-f80:128-n8:16:32:64-S128"
target triple = "x86_64-pc-linux-gnu"

@.str = private unnamed_addr constant [102 x i8] c"generated/home/dtcxzyw/WorkSpace/Projects/compilers/llvm-opt-benchmark/bench/hdf5/hdf5/src/H5VLtest.c\00", align 1
@__func__.H5VL__reparse_def_vol_conn_variable_test = private unnamed_addr constant [41 x i8] c"H5VL__reparse_def_vol_conn_variable_test\00", align 1
@H5E_VOL_g = external local_unnamed_addr global i64, align 8
@H5E_CANTINIT_g = external local_unnamed_addr global i64, align 8
@.str.1 = private unnamed_addr constant [43 x i8] c"unable to initialize default VOL connector\00", align 1

; Function Attrs: nounwind uwtable
define range(i32 -1, 1) i32 @H5VL__reparse_def_vol_conn_variable_test() local_unnamed_addr #0 {
  %1 = tail call i32 @H5VL__set_def_conn() #2
  %2 = icmp slt i32 %1, 0
  br i1 %2, label %3, label %7

3:                                                ; preds = %0
  %4 = load i64, ptr @H5E_VOL_g, align 8
  %5 = load i64, ptr @H5E_CANTINIT_g, align 8
  %6 = tail call i32 (ptr, ptr, i32, i64, i64, ptr, ...) @H5E_printf_stack(ptr noundef nonnull @.str, ptr noundef nonnull @__func__.H5VL__reparse_def_vol_conn_variable_test, i32 noundef 87, i64 noundef %4, i64 noundef %5, ptr noundef nonnull @.str.1) #2
  br label %7

7:                                                ; preds = %0, %3
  %.0 = phi i32 [ -1, %3 ], [ 0, %0 ]
  ret i32 %.0
}

declare i32 @H5VL__set_def_conn() local_unnamed_addr #1

declare i32 @H5E_printf_stack(ptr noundef, ptr noundef, i32 noundef, i64 noundef, i64 noundef, ptr noundef, ...) local_unnamed_addr #1


!llvm.module.flags = !{!0, !1, !2, !3}

!0 = !{i32 1, !"wchar_size", i32 4}
!1 = !{i32 8, !"PIC Level", i32 2}
!2 = !{i32 7, !"uwtable", i32 2}
!3 = !{i32 7, !"frame-pointer", i32 2}
